; Function Attrs: mustprogress nofree norecurse nounwind uwtable
define dso_local noundef i32 @_ZNK4base12SampleVector10TotalCountEv(ptr nocapture noundef nonnull readonly align 8 dereferenceable(88) %this) unnamed_addr #5 align 2 personality ptr @__gxx_personality_v0 {
entry:
  %counts_size_ = getelementptr inbounds i8, ptr %this, i64 72
  %0 = load i64, ptr %counts_size_, align 8
  %cmp4.not = icmp eq i64 %0, 0
  br i1 %cmp4.not, label %for.end, label %for.body.lr.ph

for.body.lr.ph:                                   ; preds = %entry
  %counts_ = getelementptr inbounds i8, ptr %this, i64 64
  %1 = load ptr, ptr %counts_, align 8
  br label %for.body

for.body:                                         ; preds = %for.body.lr.ph, %for.body
  %i.06 = phi i64 [ 0, %for.body.lr.ph ], [ %inc, %for.body ]
  %count.05 = phi i32 [ 0, %for.body.lr.ph ], [ %add, %for.body ]
  %arrayidx = getelementptr inbounds i32, ptr %1, i64 %i.06
  %2 = load atomic volatile i32, ptr %arrayidx monotonic, align 4
  %add = add nsw i32 %2, %count.05
  %inc = add nuw i64 %i.06, 1
  %exitcond.not = icmp eq i64 %inc, %0
  br i1 %exitcond.not, label %for.end, label %for.body, !llvm.loop !5

for.end:                                          ; preds = %for.body, %entry
  %count.0.lcssa = phi i32 [ 0, %entry ], [ %add, %for.body ]
  ret i32 %count.0.lcssa
}